target datalayout = "e-m:e-p270:32:32-p271:32:32-p272:64:64-i64:64-i128:128-f80:128-n8:16:32:64-S128"
target triple = "x86_64-pc-linux-gnu"

%struct.ocsp_basic_response_st = type { %struct.ocsp_response_data_st, %struct.X509_algor_st, ptr, ptr }
%struct.ocsp_response_data_st = type { ptr, %struct.ocsp_responder_id_st, ptr, ptr, ptr }
%struct.ocsp_responder_id_st = type { i32, %union.anon }
%union.anon = type { ptr }
%struct.X509_algor_st = type { ptr, ptr }

; Function Attrs: nounwind uwtable
define internal i32 @ocsp_find_signer(ptr noundef %0, ptr noundef %1, ptr noundef %2, i64 noundef %3) #0 {
  %5 = alloca i32, align 4
  %6 = alloca ptr, align 8
  %7 = alloca ptr, align 8
  %8 = alloca ptr, align 8
  %9 = alloca i64, align 8
  %10 = alloca ptr, align 8
  %11 = alloca ptr, align 8
  %12 = alloca i32, align 4
  store ptr %0, ptr %6, align 8, !tbaa !28
  store ptr %1, ptr %7, align 8, !tbaa !3
  store ptr %2, ptr %8, align 8, !tbaa !8
  store i64 %3, ptr %9, align 8, !tbaa !12
  call void @llvm.lifetime.start.p0(i64 8, ptr %10) #5
  call void @llvm.lifetime.start.p0(i64 8, ptr %11) #5
  %13 = load ptr, ptr %7, align 8, !tbaa !3
  %14 = getelementptr inbounds nuw %struct.ocsp_basic_response_st, ptr %13, i32 0, i32 0
  %15 = getelementptr inbounds nuw %struct.ocsp_response_data_st, ptr %14, i32 0, i32 1
  store ptr %15, ptr %11, align 8, !tbaa !30
  %16 = load ptr, ptr %8, align 8, !tbaa !8
  %17 = load ptr, ptr %11, align 8, !tbaa !30
  %18 = call ptr @ocsp_find_signer_sk(ptr noundef %16, ptr noundef %17)
  store ptr %18, ptr %10, align 8, !tbaa !16
  %19 = icmp ne ptr %18, null
  br i1 %19, label %20, label %23

20:                                               ; preds = %4
  %21 = load ptr, ptr %10, align 8, !tbaa !16
  %22 = load ptr, ptr %6, align 8, !tbaa !28
  store ptr %21, ptr %22, align 8, !tbaa !16
  store i32 2, ptr %5, align 4
  store i32 1, ptr %12, align 4
  br label %39

23:                                               ; preds = %4
  %24 = load i64, ptr %9, align 8, !tbaa !12
  %25 = and i64 %24, 2
  %26 = icmp eq i64 %25, 0
  br i1 %26, label %27, label %37

27:                                               ; preds = %23
  %28 = load ptr, ptr %7, align 8, !tbaa !3
  %29 = getelementptr inbounds nuw %struct.ocsp_basic_response_st, ptr %28, i32 0, i32 3
  %30 = load ptr, ptr %29, align 8, !tbaa !18
  %31 = load ptr, ptr %11, align 8, !tbaa !30
  %32 = call ptr @ocsp_find_signer_sk(ptr noundef %30, ptr noundef %31)
  store ptr %32, ptr %10, align 8, !tbaa !16
  %33 = icmp ne ptr %32, null
  br i1 %33, label %34, label %37

34:                                               ; preds = %27
  %35 = load ptr, ptr %10, align 8, !tbaa !16
  %36 = load ptr, ptr %6, align 8, !tbaa !28
  store ptr %35, ptr %36, align 8, !tbaa !16
  store i32 1, ptr %5, align 4
  store i32 1, ptr %12, align 4
  br label %39

37:                                               ; preds = %27, %23
  %38 = load ptr, ptr %6, align 8, !tbaa !28
  store ptr null, ptr %38, align 8, !tbaa !16
  store i32 0, ptr %5, align 4
  store i32 1, ptr %12, align 4
  br label %39

39:                                               ; preds = %37, %34, %20
  call void @llvm.lifetime.end.p0(i64 8, ptr %11) #5
  call void @llvm.lifetime.end.p0(i64 8, ptr %10) #5
  %40 = load i32, ptr %5, align 4
  ret i32 %40
}

; Function Attrs: nounwind uwtable
define i32 @OCSP_resp_get0_signer(ptr noundef %0, ptr noundef %1, ptr noundef %2) #0 {
  %4 = alloca ptr, align 8
  %5 = alloca ptr, align 8
  %6 = alloca ptr, align 8
  store ptr %0, ptr %4, align 8, !tbaa !3
  store ptr %1, ptr %5, align 8, !tbaa !28
  store ptr %2, ptr %6, align 8, !tbaa !8
  %7 = load ptr, ptr %5, align 8, !tbaa !28
  %8 = load ptr, ptr %4, align 8, !tbaa !3
  %9 = load ptr, ptr %6, align 8, !tbaa !8
  %10 = call i32 @ocsp_find_signer(ptr noundef %7, ptr noundef %8, ptr noundef %9, i64 noundef 0)
  %11 = icmp sgt i32 %10, 0
  %12 = zext i1 %11 to i32
  ret i32 %12
}