; Function Attrs: nounwind uwtable
define range(i32 0, 2) i32 @OCSP_resp_get0_signer(ptr noundef readonly captures(none) %0, ptr noundef writeonly captures(none) initializes((0, 8)) %1, ptr noundef %2) local_unnamed_addr #0 {
  %4 = getelementptr inbounds nuw i8, ptr %0, i64 8
  %5 = tail call fastcc ptr @ocsp_find_signer_sk(ptr noundef %2, ptr noundef nonnull readonly %4)
  %.not.i = icmp eq ptr %5, null
  br i1 %.not.i, label %6, label %ocsp_find_signer.exit

6:                                                ; preds = %3
  %7 = getelementptr inbounds nuw i8, ptr %0, i64 72
  %8 = load ptr, ptr %7, align 8, !tbaa !8
  %9 = tail call fastcc ptr @ocsp_find_signer_sk(ptr noundef %8, ptr noundef nonnull readonly %4)
  %.not13.i = icmp ne ptr %9, null
  %10 = zext i1 %.not13.i to i32
  br label %ocsp_find_signer.exit

ocsp_find_signer.exit:                            ; preds = %6, %3
  %.sink.i = phi ptr [ %5, %3 ], [ %9, %6 ]
  %.0.i = phi i32 [ 1, %3 ], [ %10, %6 ]
  store ptr %.sink.i, ptr %1, align 8, !tbaa !61
  ret i32 %.0.i
}